target datalayout = "e-m:e-p270:32:32-p271:32:32-p272:64:64-i64:64-i128:128-f80:128-n8:16:32:64-S128"
target triple = "x86_64-pc-linux-gnu"

%class.vector.301 = type { ptr }

; Function Attrs: mustprogress nounwind uwtable
define linkonce_odr hidden void @_ZN6vectorIPN3smt9theory_pb4ineqELb0EjE8pop_backEv(ptr noundef nonnull align 8 dereferenceable(8) %0) #4 comdat align 2 {
  %2 = alloca ptr, align 8
  store ptr %0, ptr %2, align 8, !tbaa !776
  %3 = load ptr, ptr %2, align 8
  %4 = getelementptr inbounds nuw %class.vector.301, ptr %3, i32 0, i32 0
  %5 = load ptr, ptr %4, align 8, !tbaa !778
  %6 = getelementptr inbounds i32, ptr %5, i64 -1
  %7 = load i32, ptr %6, align 4, !tbaa !8
  %8 = add i32 %7, -1
  store i32 %8, ptr %6, align 4, !tbaa !8
  ret void
}

; Function Attrs: inlinehint mustprogress nounwind uwtable
define linkonce_odr hidden void @_ZSt4swapIPN3smt9theory_pb4ineqEENSt9enable_ifIXsr6__and_ISt6__not_ISt15__is_tuple_likeIT_EESt21is_move_constructibleIS7_ESt18is_move_assignableIS7_EEE5valueEvE4typeERS7_SG_(ptr noundef nonnull align 8 dereferenceable(8) %0, ptr noundef nonnull align 8 dereferenceable(8) %1) #8 comdat {
  %3 = alloca ptr, align 8
  %4 = alloca ptr, align 8
  %5 = alloca ptr, align 8
  store ptr %0, ptr %3, align 8, !tbaa !781
  store ptr %1, ptr %4, align 8, !tbaa !781
  call void @llvm.lifetime.start.p0(i64 8, ptr %5) #3
  %6 = load ptr, ptr %3, align 8, !tbaa !781
  %7 = load ptr, ptr %6, align 8, !tbaa !597
  store ptr %7, ptr %5, align 8, !tbaa !597
  %8 = load ptr, ptr %4, align 8, !tbaa !781
  %9 = load ptr, ptr %8, align 8, !tbaa !597
  %10 = load ptr, ptr %3, align 8, !tbaa !781
  store ptr %9, ptr %10, align 8, !tbaa !597
  %11 = load ptr, ptr %5, align 8, !tbaa !597
  %12 = load ptr, ptr %4, align 8, !tbaa !781
  store ptr %11, ptr %12, align 8, !tbaa !597
  call void @llvm.lifetime.end.p0(i64 8, ptr %5) #3
  ret void
}

; Function Attrs: mustprogress nounwind uwtable
define linkonce_odr hidden noundef nonnull align 8 dereferenceable(8) ptr @_ZN6vectorIPN3smt9theory_pb4ineqELb0EjEixEj(ptr noundef nonnull align 8 dereferenceable(8) %0, i32 noundef %1) #4 comdat align 2 {
  %3 = alloca ptr, align 8
  %4 = alloca i32, align 4
  store ptr %0, ptr %3, align 8, !tbaa !776
  store i32 %1, ptr %4, align 4, !tbaa !8
  %5 = load ptr, ptr %3, align 8
  %6 = getelementptr inbounds nuw %class.vector.301, ptr %5, i32 0, i32 0
  %7 = load ptr, ptr %6, align 8, !tbaa !778
  %8 = load i32, ptr %4, align 4, !tbaa !8
  %9 = zext i32 %8 to i64
  %10 = getelementptr inbounds nuw ptr, ptr %7, i64 %9
  ret ptr %10
}

; Function Attrs: mustprogress nounwind uwtable
define linkonce_odr hidden noundef i32 @_ZNK6vectorIPN3smt9theory_pb4ineqELb0EjE4sizeEv(ptr noundef nonnull align 8 dereferenceable(8) %0) #4 comdat align 2 {
  %2 = alloca i32, align 4
  %3 = alloca ptr, align 8
  store ptr %0, ptr %3, align 8, !tbaa !776
  %4 = load ptr, ptr %3, align 8
  %5 = getelementptr inbounds nuw %class.vector.301, ptr %4, i32 0, i32 0
  %6 = load ptr, ptr %5, align 8, !tbaa !778
  %7 = icmp eq ptr %6, null
  br i1 %7, label %8, label %9

8:                                                ; preds = %1
  store i32 0, ptr %2, align 4
  br label %14

9:                                                ; preds = %1
  %10 = getelementptr inbounds nuw %class.vector.301, ptr %4, i32 0, i32 0
  %11 = load ptr, ptr %10, align 8, !tbaa !778
  %12 = getelementptr inbounds i32, ptr %11, i64 -1
  %13 = load i32, ptr %12, align 4, !tbaa !8
  store i32 %13, ptr %2, align 4
  br label %14

14:                                               ; preds = %9, %8
  %15 = load i32, ptr %2, align 4
  ret i32 %15
}

; Function Attrs: mustprogress uwtable
define hidden void @_ZN3smt9theory_pb6removeER10ptr_vectorINS0_4ineqEEPS2_(ptr noundef nonnull align 8 dereferenceable(968) %0, ptr noundef nonnull align 8 dereferenceable(8) %1, ptr noundef %2) #6 align 2 {
  %4 = alloca ptr, align 8
  %5 = alloca ptr, align 8
  %6 = alloca ptr, align 8
  %7 = alloca i32, align 4
  %8 = alloca i32, align 4
  %9 = alloca i32, align 4
  store ptr %0, ptr %4, align 8, !tbaa !624
  store ptr %1, ptr %5, align 8, !tbaa !773
  store ptr %2, ptr %6, align 8, !tbaa !597
  call void @llvm.lifetime.start.p0(i64 4, ptr %7) #3
  %10 = load ptr, ptr %5, align 8, !tbaa !773
  %11 = call noundef i32 @_ZNK6vectorIPN3smt9theory_pb4ineqELb0EjE4sizeEv(ptr noundef nonnull align 8 dereferenceable(8) %10)
  store i32 %11, ptr %7, align 4, !tbaa !8
  call void @llvm.lifetime.start.p0(i64 4, ptr %8) #3
  store i32 0, ptr %8, align 4, !tbaa !8
  br label %12

12:                                               ; preds = %34, %3
  %13 = load i32, ptr %8, align 4, !tbaa !8
  %14 = load i32, ptr %7, align 4, !tbaa !8
  %15 = icmp ult i32 %13, %14
  br i1 %15, label %17, label %16

16:                                               ; preds = %12
  store i32 2, ptr %9, align 4
  br label %37

17:                                               ; preds = %12
  %18 = load ptr, ptr %5, align 8, !tbaa !773
  %19 = load i32, ptr %8, align 4, !tbaa !8
  %20 = call noundef nonnull align 8 dereferenceable(8) ptr @_ZN6vectorIPN3smt9theory_pb4ineqELb0EjEixEj(ptr noundef nonnull align 8 dereferenceable(8) %18, i32 noundef %19)
  %21 = load ptr, ptr %20, align 8, !tbaa !597
  %22 = load ptr, ptr %6, align 8, !tbaa !597
  %23 = icmp eq ptr %21, %22
  br i1 %23, label %24, label %33

24:                                               ; preds = %17
  %25 = load ptr, ptr %5, align 8, !tbaa !773
  %26 = load i32, ptr %8, align 4, !tbaa !8
  %27 = call noundef nonnull align 8 dereferenceable(8) ptr @_ZN6vectorIPN3smt9theory_pb4ineqELb0EjEixEj(ptr noundef nonnull align 8 dereferenceable(8) %25, i32 noundef %26)
  %28 = load ptr, ptr %5, align 8, !tbaa !773
  %29 = load i32, ptr %7, align 4, !tbaa !8
  %30 = sub i32 %29, 1
  %31 = call noundef nonnull align 8 dereferenceable(8) ptr @_ZN6vectorIPN3smt9theory_pb4ineqELb0EjEixEj(ptr noundef nonnull align 8 dereferenceable(8) %28, i32 noundef %30)
  call void @_ZSt4swapIPN3smt9theory_pb4ineqEENSt9enable_ifIXsr6__and_ISt6__not_ISt15__is_tuple_likeIT_EESt21is_move_constructibleIS7_ESt18is_move_assignableIS7_EEE5valueEvE4typeERS7_SG_(ptr noundef nonnull align 8 dereferenceable(8) %27, ptr noundef nonnull align 8 dereferenceable(8) %31) #3
  %32 = load ptr, ptr %5, align 8, !tbaa !773
  call void @_ZN6vectorIPN3smt9theory_pb4ineqELb0EjE8pop_backEv(ptr noundef nonnull align 8 dereferenceable(8) %32)
  store i32 1, ptr %9, align 4
  br label %37

33:                                               ; preds = %17
  br label %34

34:                                               ; preds = %33
  %35 = load i32, ptr %8, align 4, !tbaa !8
  %36 = add i32 %35, 1
  store i32 %36, ptr %8, align 4, !tbaa !8
  br label %12, !llvm.loop !786

37:                                               ; preds = %24, %16
  call void @llvm.lifetime.end.p0(i64 4, ptr %8) #3
  %38 = load i32, ptr %9, align 4
  switch i32 %38, label %40 [
    i32 2, label %39
  ]

39:                                               ; preds = %37
  store i32 0, ptr %9, align 4
  br label %40

40:                                               ; preds = %39, %37
  call void @llvm.lifetime.end.p0(i64 4, ptr %7) #3
  %41 = load i32, ptr %9, align 4
  switch i32 %41, label %43 [
    i32 0, label %42
    i32 1, label %42
  ]

42:                                               ; preds = %40, %40
  ret void

43:                                               ; preds = %40
  unreachable
}