; Function Attrs: mustprogress nofree norecurse nosync nounwind memory(readwrite, inaccessiblemem: none) uwtable
define hidden void @_ZN3smt9theory_pb6removeER10ptr_vectorINS0_4ineqEEPS2_(ptr noundef nonnull readnone align 8 captures(none) dereferenceable(968) %0, ptr noundef nonnull readonly align 8 captures(none) dereferenceable(8) %1, ptr noundef readnone captures(address) %2) local_unnamed_addr #10 align 2 {
  %4 = load ptr, ptr %1, align 8, !tbaa !782
  %5 = icmp eq ptr %4, null
  br i1 %5, label %.loopexit, label %_ZNK6vectorIPN3smt9theory_pb4ineqELb0EjE4sizeEv.exit

_ZNK6vectorIPN3smt9theory_pb4ineqELb0EjE4sizeEv.exit: ; preds = %3
  %6 = getelementptr inbounds i8, ptr %4, i64 -4
  %7 = load i32, ptr %6, align 4, !tbaa !9
  %.not = icmp eq i32 %7, 0
  br i1 %.not, label %.loopexit, label %.lr.ph.preheader

.lr.ph.preheader:                                 ; preds = %_ZNK6vectorIPN3smt9theory_pb4ineqELb0EjE4sizeEv.exit
  %wide.trip.count = zext i32 %7 to i64
  br label %.lr.ph

8:                                                ; preds = %.lr.ph
  %indvars.iv.next = add nuw nsw i64 %indvars.iv, 1
  %exitcond.not = icmp eq i64 %indvars.iv.next, %wide.trip.count
  br i1 %exitcond.not, label %.loopexit, label %.lr.ph, !llvm.loop !789

.lr.ph:                                           ; preds = %.lr.ph.preheader, %8
  %indvars.iv = phi i64 [ 0, %.lr.ph.preheader ], [ %indvars.iv.next, %8 ]
  %9 = getelementptr inbounds nuw ptr, ptr %4, i64 %indvars.iv
  %10 = load ptr, ptr %9, align 8, !tbaa !785
  %11 = icmp eq ptr %10, %2
  br i1 %11, label %12, label %8

12:                                               ; preds = %.lr.ph
  %13 = getelementptr inbounds nuw ptr, ptr %4, i64 %indvars.iv
  %14 = add i32 %7, -1
  %15 = zext i32 %14 to i64
  %16 = getelementptr inbounds nuw ptr, ptr %4, i64 %15
  %17 = load ptr, ptr %16, align 8, !tbaa !785
  store ptr %17, ptr %13, align 8, !tbaa !785
  store ptr %10, ptr %16, align 8, !tbaa !785
  %18 = getelementptr inbounds i8, ptr %4, i64 -4
  %19 = load i32, ptr %18, align 4, !tbaa !9
  %20 = add i32 %19, -1
  store i32 %20, ptr %18, align 4, !tbaa !9
  br label %.loopexit

.loopexit:                                        ; preds = %8, %3, %_ZNK6vectorIPN3smt9theory_pb4ineqELb0EjE4sizeEv.exit, %12
  ret void
}